target datalayout = "e-m:e-p270:32:32-p271:32:32-p272:64:64-i64:64-i128:128-f80:128-n8:16:32:64-S128"
target triple = "x86_64-pc-linux-gnu"

%"struct.std::nothrow_t" = type { i8 }
%"class.zmq::ypipe_conflate_t" = type <{ %"class.zmq::ypipe_base_t", %"class.zmq::dbuffer_t", i8, [7 x i8] }>
%"class.zmq::ypipe_base_t" = type { ptr }
%"class.zmq::dbuffer_t" = type <{ [2 x %"class.zmq::msg_t"], ptr, ptr, %"class.zmq::mutex_t", i8, [7 x i8] }>
%"class.zmq::msg_t" = type { %union.anon }
%union.anon = type { %struct.anon }
%struct.anon = type { ptr, [34 x i8], i8, i8, i32, %"union.zmq::msg_t::group_t" }
%"union.zmq::msg_t::group_t" = type { %struct.anon.1 }
%struct.anon.1 = type { i8, ptr }
%"class.zmq::mutex_t" = type <{ %union.pthread_mutex_t, %union.pthread_mutexattr_t, [4 x i8] }>
%union.pthread_mutex_t = type { %struct.__pthread_mutex_s }
%struct.__pthread_mutex_s = type { i32, i32, i32, i32, i32, i16, i16, %struct.__pthread_internal_list }
%struct.__pthread_internal_list = type { ptr, ptr }
%union.pthread_mutexattr_t = type { i32 }
%"class.zmq::pipe_t" = type { %"class.zmq::object_t.base", [4 x i8], %"class.zmq::array_item_t.base", [4 x i8], %"class.zmq::array_item_t.base.11", [4 x i8], %"class.zmq::array_item_t.base.13", ptr, ptr, i8, i8, i32, i32, i32, i32, i64, i64, i64, ptr, ptr, i32, i8, [3 x i8], %"struct.zmq::blob_t", i32, i8, [3 x i8], %"struct.zmq::endpoint_uri_pair_t", %"class.zmq::msg_t" }
%"class.zmq::object_t.base" = type <{ ptr, ptr, i32 }>
%"class.zmq::array_item_t.base" = type <{ ptr, i32 }>
%"class.zmq::array_item_t.base.11" = type <{ ptr, i32 }>
%"class.zmq::array_item_t.base.13" = type <{ ptr, i32 }>
%"struct.zmq::blob_t" = type <{ ptr, i64, i8, [7 x i8] }>
%"struct.zmq::endpoint_uri_pair_t" = type <{ %"class.std::__cxx11::basic_string", %"class.std::__cxx11::basic_string", i32, [4 x i8] }>
%"class.std::__cxx11::basic_string" = type { %"struct.std::__cxx11::basic_string<char>::_Alloc_hider", i64, %union.anon.14 }
%"struct.std::__cxx11::basic_string<char>::_Alloc_hider" = type { ptr }
%union.anon.14 = type { i64, [8 x i8] }

@_ZSt7nothrow = external global %"struct.std::nothrow_t", align 1
@stderr = external global ptr, align 8
@.str = private unnamed_addr constant [36 x i8] c"FATAL ERROR: OUT OF MEMORY (%s:%d)\0A\00", align 1
@.str.1 = private unnamed_addr constant [104 x i8] c"generated/home/dtcxzyw/WorkSpace/Projects/compilers/llvm-opt-benchmark/bench/libzmq/libzmq/src/pipe.cpp\00", align 1
@.str.2 = private unnamed_addr constant [27 x i8] c"FATAL ERROR: OUT OF MEMORY\00", align 1

; Function Attrs: mustprogress nounwind uwtable
define linkonce_odr void @_ZN3zmq12ypipe_base_tINS_5msg_tEED2Ev(ptr noundef nonnull align 8 dereferenceable(8) %0) unnamed_addr #9 comdat align 2 {
  %2 = alloca ptr, align 8
  store ptr %0, ptr %2, align 8, !tbaa !19
  ret void
}

; Function Attrs: mustprogress uwtable
define linkonce_odr void @_ZN3zmq9dbuffer_tINS_5msg_tEEC2Ev(ptr noundef nonnull align 8 dereferenceable(193) %0) unnamed_addr #0 comdat align 2 personality ptr @__gxx_personality_v0 {
  %2 = alloca ptr, align 8
  %3 = alloca ptr, align 8
  %4 = alloca i32, align 4
  store ptr %0, ptr %2, align 8, !tbaa !173
  %5 = load ptr, ptr %2, align 8
  %6 = getelementptr inbounds nuw %"class.zmq::dbuffer_t", ptr %5, i32 0, i32 1
  %7 = getelementptr inbounds nuw %"class.zmq::dbuffer_t", ptr %5, i32 0, i32 0
  %8 = getelementptr inbounds [2 x %"class.zmq::msg_t"], ptr %7, i64 0, i64 0
  store ptr %8, ptr %6, align 8, !tbaa !175
  %9 = getelementptr inbounds nuw %"class.zmq::dbuffer_t", ptr %5, i32 0, i32 2
  %10 = getelementptr inbounds nuw %"class.zmq::dbuffer_t", ptr %5, i32 0, i32 0
  %11 = getelementptr inbounds [2 x %"class.zmq::msg_t"], ptr %10, i64 0, i64 1
  store ptr %11, ptr %9, align 8, !tbaa !176
  %12 = getelementptr inbounds nuw %"class.zmq::dbuffer_t", ptr %5, i32 0, i32 3
  call void @_ZN3zmq7mutex_tC2Ev(ptr noundef nonnull align 8 dereferenceable(44) %12)
  %13 = getelementptr inbounds nuw %"class.zmq::dbuffer_t", ptr %5, i32 0, i32 4
  store i8 0, ptr %13, align 8, !tbaa !177
  %14 = getelementptr inbounds nuw %"class.zmq::dbuffer_t", ptr %5, i32 0, i32 1
  %15 = load ptr, ptr %14, align 8, !tbaa !175
  %16 = invoke noundef i32 @_ZN3zmq5msg_t4initEv(ptr noundef nonnull align 8 dereferenceable(64) %15)
          to label %17 unwind label %22

17:                                               ; preds = %1
  %18 = getelementptr inbounds nuw %"class.zmq::dbuffer_t", ptr %5, i32 0, i32 2
  %19 = load ptr, ptr %18, align 8, !tbaa !176
  %20 = invoke noundef i32 @_ZN3zmq5msg_t4initEv(ptr noundef nonnull align 8 dereferenceable(64) %19)
          to label %21 unwind label %22

21:                                               ; preds = %17
  ret void

22:                                               ; preds = %17, %1
  %23 = landingpad { ptr, i32 }
          cleanup
  %24 = extractvalue { ptr, i32 } %23, 0
  store ptr %24, ptr %3, align 8
  %25 = extractvalue { ptr, i32 } %23, 1
  store i32 %25, ptr %4, align 4
  call void @_ZN3zmq7mutex_tD2Ev(ptr noundef nonnull align 8 dereferenceable(44) %12) #17
  br label %26

26:                                               ; preds = %22
  %27 = load ptr, ptr %3, align 8
  %28 = load i32, ptr %4, align 4
  %29 = insertvalue { ptr, i32 } poison, ptr %27, 0
  %30 = insertvalue { ptr, i32 } %29, i32 %28, 1
  resume { ptr, i32 } %30
}

; Function Attrs: inlinehint mustprogress nounwind uwtable
define linkonce_odr void @_ZN3zmq12ypipe_base_tINS_5msg_tEEC2Ev(ptr noundef nonnull align 8 dereferenceable(8) %0) unnamed_addr #10 comdat align 2 {
  %2 = alloca ptr, align 8
  store ptr %0, ptr %2, align 8, !tbaa !19
  %3 = load ptr, ptr %2, align 8
  store ptr getelementptr inbounds inrange(-16, 64) ({ [10 x ptr] }, ptr @_ZTVN3zmq12ypipe_base_tINS_5msg_tEEE, i32 0, i32 0, i32 2), ptr %3, align 8, !tbaa !31
  ret void
}

; Function Attrs: mustprogress uwtable
define linkonce_odr void @_ZN3zmq16ypipe_conflate_tINS_5msg_tEEC2Ev(ptr noundef nonnull align 8 dereferenceable(216) %0) unnamed_addr #0 comdat align 2 personality ptr @__gxx_personality_v0 {
  %2 = alloca ptr, align 8
  %3 = alloca ptr, align 8
  %4 = alloca i32, align 4
  store ptr %0, ptr %2, align 8, !tbaa !29
  %5 = load ptr, ptr %2, align 8
  call void @_ZN3zmq12ypipe_base_tINS_5msg_tEEC2Ev(ptr noundef nonnull align 8 dereferenceable(8) %5) #17
  store ptr getelementptr inbounds inrange(-16, 64) ({ [10 x ptr] }, ptr @_ZTVN3zmq16ypipe_conflate_tINS_5msg_tEEE, i32 0, i32 0, i32 2), ptr %5, align 8, !tbaa !31
  %6 = getelementptr inbounds nuw %"class.zmq::ypipe_conflate_t", ptr %5, i32 0, i32 1
  invoke void @_ZN3zmq9dbuffer_tINS_5msg_tEEC2Ev(ptr noundef nonnull align 8 dereferenceable(193) %6)
          to label %7 unwind label %9

7:                                                ; preds = %1
  %8 = getelementptr inbounds nuw %"class.zmq::ypipe_conflate_t", ptr %5, i32 0, i32 2
  store i8 0, ptr %8, align 8, !tbaa !33
  ret void

9:                                                ; preds = %1
  %10 = landingpad { ptr, i32 }
          cleanup
  %11 = extractvalue { ptr, i32 } %10, 0
  store ptr %11, ptr %3, align 8
  %12 = extractvalue { ptr, i32 } %10, 1
  store i32 %12, ptr %4, align 4
  call void @_ZN3zmq12ypipe_base_tINS_5msg_tEED2Ev(ptr noundef nonnull align 8 dereferenceable(8) %5) #17
  br label %13

13:                                               ; preds = %9
  %14 = load ptr, ptr %3, align 8
  %15 = load i32, ptr %4, align 4
  %16 = insertvalue { ptr, i32 } poison, ptr %14, 0
  %17 = insertvalue { ptr, i32 } %16, i32 %15, 1
  resume { ptr, i32 } %17
}

; Function Attrs: mustprogress uwtable
define void @_ZN3zmq6pipe_t6hiccupEv(ptr noundef nonnull align 8 dereferenceable(328) %0) #0 align 2 personality ptr @__gxx_personality_v0 {
  %2 = alloca ptr, align 8
  %3 = alloca ptr, align 8
  %4 = alloca i1, align 1
  %5 = alloca ptr, align 8
  %6 = alloca i32, align 4
  %7 = alloca ptr, align 8
  %8 = alloca i1, align 1
  store ptr %0, ptr %2, align 8, !tbaa !27
  %9 = load ptr, ptr %2, align 8
  %10 = getelementptr inbounds nuw %"class.zmq::pipe_t", ptr %9, i32 0, i32 20
  %11 = load i32, ptr %10, align 8, !tbaa !110
  %12 = icmp ne i32 %11, 0
  br i1 %12, label %13, label %14

13:                                               ; preds = %1
  br label %71

14:                                               ; preds = %1
  %15 = getelementptr inbounds nuw %"class.zmq::pipe_t", ptr %9, i32 0, i32 25
  %16 = load i8, ptr %15, align 4, !tbaa !128, !range !17, !noundef !18
  %17 = trunc i8 %16 to i1
  store i1 false, ptr %4, align 1
  store i1 false, ptr %8, align 1
  br i1 %17, label %18, label %25

18:                                               ; preds = %14
  %19 = call noalias noundef ptr @_ZnwmRKSt9nothrow_t(i64 noundef 216, ptr noundef nonnull align 1 dereferenceable(1) @_ZSt7nothrow) #18
  %20 = icmp eq ptr %19, null
  br i1 %20, label %23, label %21

21:                                               ; preds = %18
  store ptr %19, ptr %3, align 8
  store i1 true, ptr %4, align 1
  invoke void @_ZN3zmq16ypipe_conflate_tINS_5msg_tEEC2Ev(ptr noundef nonnull align 8 dereferenceable(216) %19)
          to label %22 unwind label %48

22:                                               ; preds = %21
  br label %23

23:                                               ; preds = %22, %18
  %24 = phi ptr [ %19, %22 ], [ null, %18 ]
  br label %32

25:                                               ; preds = %14
  %26 = call noalias noundef ptr @_ZnwmRKSt9nothrow_t(i64 noundef 96, ptr noundef nonnull align 1 dereferenceable(1) @_ZSt7nothrow) #18
  %27 = icmp eq ptr %26, null
  br i1 %27, label %30, label %28

28:                                               ; preds = %25
  store ptr %26, ptr %7, align 8
  store i1 true, ptr %8, align 1
  invoke void @_ZN3zmq7ypipe_tINS_5msg_tELi256EEC2Ev(ptr noundef nonnull align 8 dereferenceable(96) %26)
          to label %29 unwind label %56

29:                                               ; preds = %28
  br label %30

30:                                               ; preds = %29, %25
  %31 = phi ptr [ %26, %29 ], [ null, %25 ]
  br label %32

32:                                               ; preds = %30, %23
  %33 = phi ptr [ %24, %23 ], [ %31, %30 ]
  %34 = getelementptr inbounds nuw %"class.zmq::pipe_t", ptr %9, i32 0, i32 7
  store ptr %33, ptr %34, align 8, !tbaa !116
  br label %35

35:                                               ; preds = %32
  %36 = getelementptr inbounds nuw %"class.zmq::pipe_t", ptr %9, i32 0, i32 7
  %37 = load ptr, ptr %36, align 8, !tbaa !116
  %38 = icmp ne ptr %37, null
  %39 = xor i1 %38, true
  %40 = zext i1 %39 to i64
  %41 = call i64 @llvm.expect.i64(i64 %40, i64 0)
  %42 = icmp ne i64 %41, 0
  br i1 %42, label %43, label %64

43:                                               ; preds = %35
  %44 = load ptr, ptr @stderr, align 8, !tbaa !21
  %45 = call i32 (ptr, ptr, ...) @fprintf(ptr noundef %44, ptr noundef @.str, ptr noundef @.str.1, i32 noundef 504) #17
  %46 = load ptr, ptr @stderr, align 8, !tbaa !21
  %47 = call i32 @fflush(ptr noundef %46)
  call void @_ZN3zmq9zmq_abortEPKc(ptr noundef @.str.2)
  br label %64

48:                                               ; preds = %21
  %49 = landingpad { ptr, i32 }
          cleanup
  %50 = extractvalue { ptr, i32 } %49, 0
  store ptr %50, ptr %5, align 8
  %51 = extractvalue { ptr, i32 } %49, 1
  store i32 %51, ptr %6, align 4
  %52 = load i1, ptr %4, align 1
  br i1 %52, label %53, label %55

53:                                               ; preds = %48
  %54 = load ptr, ptr %3, align 8
  call void @_ZdlPvRKSt9nothrow_t(ptr noundef %54, ptr noundef nonnull align 1 dereferenceable(1) @_ZSt7nothrow) #19
  br label %55

55:                                               ; preds = %53, %48
  br label %72

56:                                               ; preds = %28
  %57 = landingpad { ptr, i32 }
          cleanup
  %58 = extractvalue { ptr, i32 } %57, 0
  store ptr %58, ptr %5, align 8
  %59 = extractvalue { ptr, i32 } %57, 1
  store i32 %59, ptr %6, align 4
  %60 = load i1, ptr %8, align 1
  br i1 %60, label %61, label %63

61:                                               ; preds = %56
  %62 = load ptr, ptr %7, align 8
  call void @_ZdlPvRKSt9nothrow_t(ptr noundef %62, ptr noundef nonnull align 1 dereferenceable(1) @_ZSt7nothrow) #19
  br label %63

63:                                               ; preds = %61, %56
  br label %72

64:                                               ; preds = %43, %35
  br label %65

65:                                               ; preds = %64
  %66 = getelementptr inbounds nuw %"class.zmq::pipe_t", ptr %9, i32 0, i32 9
  store i8 1, ptr %66, align 8, !tbaa !117
  %67 = getelementptr inbounds nuw %"class.zmq::pipe_t", ptr %9, i32 0, i32 18
  %68 = load ptr, ptr %67, align 8, !tbaa !53
  %69 = getelementptr inbounds nuw %"class.zmq::pipe_t", ptr %9, i32 0, i32 7
  %70 = load ptr, ptr %69, align 8, !tbaa !116
  call void @_ZN3zmq8object_t11send_hiccupEPNS_6pipe_tEPv(ptr noundef nonnull align 8 dereferenceable(20) %9, ptr noundef %68, ptr noundef %70)
  br label %71

71:                                               ; preds = %65, %13
  ret void

72:                                               ; preds = %63, %55
  %73 = load ptr, ptr %5, align 8
  %74 = load i32, ptr %6, align 4
  %75 = insertvalue { ptr, i32 } poison, ptr %73, 0
  %76 = insertvalue { ptr, i32 } %75, i32 %74, 1
  resume { ptr, i32 } %76
}