; Function Attrs: mustprogress uwtable
define void @_ZN3zmq6pipe_t6hiccupEv(ptr noundef nonnull align 8 dereferenceable(328) %0) local_unnamed_addr #0 align 2 personality ptr @__gxx_personality_v0 {
  %2 = getelementptr inbounds nuw i8, ptr %0, i64 152
  %3 = load i32, ptr %2, align 8, !tbaa !105
  %.not = icmp eq i32 %3, 0
  br i1 %.not, label %4, label %47

4:                                                ; preds = %1
  %5 = getelementptr inbounds nuw i8, ptr %0, i64 188
  %6 = load i8, ptr %5, align 4, !tbaa !119, !range !7, !noundef !8
  %7 = trunc nuw i8 %6 to i1
  br i1 %7, label %8, label %25

8:                                                ; preds = %4
  %9 = tail call noalias noundef dereferenceable_or_null(216) ptr @_ZnwmRKSt9nothrow_t(i64 noundef 216, ptr noundef nonnull align 1 dereferenceable(1) @_ZSt7nothrow) #24
  %10 = icmp eq ptr %9, null
  br i1 %10, label %32, label %11

11:                                               ; preds = %8
  store ptr getelementptr inbounds nuw inrange(-16, 64) (i8, ptr @_ZTVN3zmq16ypipe_conflate_tINS_5msg_tEEE, i64 16), ptr %9, align 8, !tbaa !9
  %12 = getelementptr inbounds nuw i8, ptr %9, i64 8
  %13 = getelementptr inbounds nuw i8, ptr %9, i64 136
  store ptr %12, ptr %13, align 8, !tbaa !11
  %14 = getelementptr inbounds nuw i8, ptr %9, i64 144
  %15 = getelementptr inbounds nuw i8, ptr %9, i64 72
  store ptr %15, ptr %14, align 8, !tbaa !16
  %16 = getelementptr inbounds nuw i8, ptr %9, i64 152
  invoke void @_ZN3zmq7mutex_tC2Ev(ptr noundef nonnull align 8 dereferenceable(44) %16)
          to label %.noexc unwind label %38

.noexc:                                           ; preds = %11
  %17 = getelementptr inbounds nuw i8, ptr %9, i64 200
  store i8 0, ptr %17, align 8, !tbaa !17
  %18 = load ptr, ptr %13, align 8, !tbaa !11
  %19 = invoke noundef i32 @_ZN3zmq5msg_t4initEv(ptr noundef nonnull align 8 dereferenceable(64) %18)
          to label %20 unwind label %.body.i

20:                                               ; preds = %.noexc
  %21 = load ptr, ptr %14, align 8, !tbaa !16
  %22 = invoke noundef i32 @_ZN3zmq5msg_t4initEv(ptr noundef nonnull align 8 dereferenceable(64) %21)
          to label %_ZN3zmq16ypipe_conflate_tINS_5msg_tEEC2Ev.exit unwind label %.body.i

.body.i:                                          ; preds = %20, %.noexc
  %23 = landingpad { ptr, i32 }
          cleanup
  tail call void @_ZN3zmq7mutex_tD2Ev(ptr noundef nonnull align 8 dereferenceable(44) %16) #25
  br label %.body

_ZN3zmq16ypipe_conflate_tINS_5msg_tEEC2Ev.exit:   ; preds = %20
  %24 = getelementptr inbounds nuw i8, ptr %9, i64 208
  store i8 0, ptr %24, align 8, !tbaa !18
  br label %29

25:                                               ; preds = %4
  %26 = tail call noalias noundef dereferenceable_or_null(96) ptr @_ZnwmRKSt9nothrow_t(i64 noundef 96, ptr noundef nonnull align 1 dereferenceable(1) @_ZSt7nothrow) #24
  %27 = icmp eq ptr %26, null
  br i1 %27, label %32, label %28

28:                                               ; preds = %25
  invoke void @_ZN3zmq7ypipe_tINS_5msg_tELi256EEC2Ev(ptr noundef nonnull align 8 dereferenceable(96) %26)
          to label %29 unwind label %40

29:                                               ; preds = %_ZN3zmq16ypipe_conflate_tINS_5msg_tEEC2Ev.exit, %28
  %30 = phi ptr [ %9, %_ZN3zmq16ypipe_conflate_tINS_5msg_tEEC2Ev.exit ], [ %26, %28 ]
  %31 = getelementptr inbounds nuw i8, ptr %0, i64 72
  store ptr %30, ptr %31, align 8, !tbaa !111
  br label %42

32:                                               ; preds = %8, %25
  %33 = getelementptr inbounds nuw i8, ptr %0, i64 72
  store ptr null, ptr %33, align 8, !tbaa !111
  %34 = load ptr, ptr @stderr, align 8, !tbaa !21
  %35 = tail call i32 (ptr, ptr, ...) @fprintf(ptr noundef %34, ptr noundef nonnull @.str, ptr noundef nonnull @.str.1, i32 noundef 504) #26
  %36 = load ptr, ptr @stderr, align 8, !tbaa !21
  %37 = tail call i32 @fflush(ptr noundef %36)
  tail call void @_ZN3zmq9zmq_abortEPKc(ptr noundef nonnull @.str.2)
  %.pre = load ptr, ptr %33, align 8, !tbaa !111
  br label %42

38:                                               ; preds = %11
  %39 = landingpad { ptr, i32 }
          cleanup
  br label %.body

40:                                               ; preds = %28
  %41 = landingpad { ptr, i32 }
          cleanup
  br label %.body

42:                                               ; preds = %29, %32
  %43 = phi ptr [ %30, %29 ], [ %.pre, %32 ]
  %44 = getelementptr inbounds nuw i8, ptr %0, i64 88
  store i8 1, ptr %44, align 8, !tbaa !112
  %45 = getelementptr inbounds nuw i8, ptr %0, i64 136
  %46 = load ptr, ptr %45, align 8, !tbaa !29
  tail call void @_ZN3zmq8object_t11send_hiccupEPNS_6pipe_tEPv(ptr noundef nonnull align 8 dereferenceable(20) %0, ptr noundef %46, ptr noundef %43)
  br label %47

47:                                               ; preds = %1, %42
  ret void

.body:                                            ; preds = %38, %.body.i, %40
  %.sink = phi ptr [ %26, %40 ], [ %9, %.body.i ], [ %9, %38 ]
  %.pn = phi { ptr, i32 } [ %41, %40 ], [ %23, %.body.i ], [ %39, %38 ]
  tail call void @_ZdlPvRKSt9nothrow_t(ptr noundef nonnull %.sink, ptr noundef nonnull align 1 dereferenceable(1) @_ZSt7nothrow) #27
  resume { ptr, i32 } %.pn
}